(dp0
(S'K'
p1
S')'
p2
tp3
I0
s(S'C'
p4
S'\\'
p5
tp6
I0
s(S'['
p7
S'O'
p8
tp9
I0
s(g8
S'1'
p10
tp11
I0
s(S']'
p12
S'S'
p13
tp14
I0
s(g13
S'N'
p15
tp16
I0
s(g12
S'='
p17
tp18
I0
s(g2
g1
tp19
I0
s(S'7'
p20
g8
tp21
I0
s(g4
g13
tp22
I0
s(g17
g4
tp23
I0
s(g5
g8
tp24
I0
s(S'B'
p25
g12
tp26
I0
s(S'('
p27
S'P'
p28
tp29
I0
s(g28
S'-'
p30
tp31
I0
s(S'/'
p32
g8
tp33
I0
s(g8
S'H'
p34
tp35
I0
s(g30
g12
tp36
I0
s(g7
S'2'
p37
tp38
I0
s(g4
g7
tp39
I0
s(g2
g32
tp40
I0
s(g5
g15
tp41
I0
s(g5
S'I'
p42
tp43
I0
s(S'3'
p44
g4
tp45
I0
s(g10
g2
tp46
I0
s(g1
g12
tp47
I0
s(g12
g4
tp48
I0
s(g7
g4
tp49
I0
s(g15
g13
tp50
I0
s(g8
g8
tp51
I0
s(g2
g28
tp52
I0
s(g25
g17
tp53
I0
s(g13
g1
tp54
I0
s(g2
g7
tp55
I0
s(g37
g20
tp56
I0
s(g15
g30
tp57
I0
s(g8
g12
tp58
I0
s(g2
g25
tp59
I0
s(g27
g32
tp60
I0
s(g13
g34
tp61
I0
s(g28
g17
tp62
I0
s(g42
g30
tp63
I0
s(g28
g1
tp64
I0
s(g15
g25
tp65
I0
s(g5
g25
tp66
I0
s(g32
S'F'
p67
tp68
I0
s(g28
S'@'
p69
tp70
I0
s(g12
g25
tp71
I0
s(g4
g1
tp72
I0
s(g44
S'6'
p73
tp74
I0
s(g13
g10
tp75
I0
s(g15
g5
tp76
I0
s(g8
g15
tp77
I0
s(g69
g34
tp78
I0
s(g13
g27
tp79
I0
s(g4
S'#'
p80
tp81
I0
s(S'5'
p82
g15
tp83
I0
s(g10
S'9'
p84
tp85
I0
s(g15
S'.'
p86
tp87
I0
s(g2
g67
tp88
I0
s(g4
g10
tp89
I0
s(g32
g4
tp90
I0
s(g15
g4
tp91
I0
s(g10
g34
tp92
I0
s(g10
g4
tp93
I0
s(g30
g37
tp94
I0
s(g1
g17
tp95
I0
s(g15
g12
tp96
I0
s(g28
g25
tp97
I0
s(g32
g13
tp98
I0
s(g12
g32
tp99
I0
s(g13
g13
tp100
I0
s(g34
g44
tp101
I0
s(g20
g67
tp102
I0
s(g15
g32
tp103
I0
s(g28
g28
tp104
I0
s(S'4'
p105
g42
tp106
I0
s(g7
g34
tp107
I0
s(g2
g8
tp108
I0
s(g28
g42
tp109
I0
s(g28
g27
tp110
I0
s(g28
g67
tp111
I0
s(g12
g5
tp112
I0
s(g4
g42
tp113
I0
s(g13
g32
tp114
I0
s(S'0'
p115
g4
tp116
I0
s(g2
g27
tp117
I0
s(g105
g15
tp118
I0
s(g15
g27
tp119
I0
s(g82
g13
tp120
I0
s(g10
g37
tp121
I0
s(g10
g13
tp122
I0
s(g13
g30
tp123
I0
s(g15
g17
tp124
I0
s(g37
g12
tp125
I0
s(S'8'
p126
g115
tp127
I0
s(g4
g34
tp128
I0
s(g44
g10
tp129
I0
s(g13
g69
tp130
I0
s(g8
g13
tp131
I0
s(g8
g7
tp132
I0
s(g27
g17
tp133
I0
s(g126
g67
tp134
I0
s(g27
g1
tp135
I0
s(g7
g42
tp136
I0
s(g32
g7
tp137
I0
s(g15
g2
tp138
I0
s(g17
g8
tp139
I0
s(g7
g28
tp140
I0
s(g28
g10
tp141
I0
s(g44
S'+'
p142
tp143
I0
s(g28
g8
tp144
I0
s(g15
g15
tp145
I0
s(g13
g12
tp146
I0
s(g44
g20
tp147
I0
s(g17
g28
tp148
I0
s(g42
g4
tp149
I0
s(g42
g8
tp150
I0
s(g13
g37
tp151
I0
s(g42
g17
tp152
I0
s(g12
g27
tp153
I0
s(g10
g17
tp154
I0
s(g28
g7
tp155
I0
s(g84
g25
tp156
I0
s(g5
g4
tp157
I0
s(g12
g8
tp158
I0
s(g80
g15
tp159
I0
s(g15
g8
tp160
I0
s(g8
g4
tp161
I0
s(g37
g82
tp162
I0
s(g4
g67
tp163
I0
s(g8
g142
tp164
I0
s(g73
g1
tp165
I0
s(g12
g80
tp166
I0
s(g27
g80
tp167
I0
s(g8
g67
tp168
I0
s(g27
g42
tp169
I0
s(g13
g8
tp170
I0
s(g15
g142
tp171
I0
s(g17
g42
tp172
I0
s(g13
g67
tp173
I0
s(g12
g15
tp174
I0
s(g2
g42
tp175
I0
s(g42
g13
tp176
I0
s(g15
g34
tp177
I0
s(g8
g25
tp178
I0
s(g10
g105
tp179
I0
s(g4
g32
tp180
I0
s(g44
g82
tp181
I0
s(g13
g142
tp182
I0
s(g8
g28
tp183
I0
s(g37
g28
tp184
I0
s(g4
g17
tp185
I0
s(g27
g15
tp186
I0
s(g12
g42
tp187
I0
s(g25
g2
tp188
I0
s(g15
g42
tp189
I0
s(g10
g15
tp190
I0
s(g80
g4
tp191
I0
s(g4
g86
tp192
I0
s(g12
g7
tp193
I0
s(g44
g105
tp194
I0
s(g42
g10
tp195
I0
s(g8
g2
tp196
I0
s(g15
g7
tp197
I0
s(g7
g15
tp198
I0
s(g34
g142
tp199
I0
s(g8
g32
tp200
I0
s(g27
g8
tp201
I0
s(g2
g4
tp202
I0
s(g28
g12
tp203
I0
s(g42
g12
tp204
I0
s(g17
g10
tp205
I0
s(g34
g12
tp206
I0
s(g42
g7
tp207
I0
s(g28
g4
tp208
I0
s(g32
g15
tp209
I0
s(g4
g30
tp210
I0
s(g4
g4
tp211
I0
s(g7
g10
tp212
I0
s(g105
g13
tp213
I0
s(g69
g69
tp214
I0
s(g7
g126
tp215
I0
s(g44
g12
tp216
I0
s(g27
g7
tp217
I0
s(g37
g34
tp218
I0
s(g20
g84
tp219
I0
s(g84
g67
tp220
I0
s(g10
g27
tp221
I0
s(g12
g1
tp222
I0
s(g20
g42
tp223
I0
s(g10
g42
tp224
I0
s(g10
g80
tp225
I0
s(g15
g1
tp226
I0
s(g4
g25
tp227
I0
s(g2
g13
tp228
I0
s(g13
g2
tp229
I0
s(g34
g37
tp230
I0
s(g42
g142
tp231
I0
s(g12
g2
tp232
I0
s(g4
g28
tp233
I0
s(g7
g13
tp234
I0
s(g28
g13
tp235
I0
s(g42
g34
tp236
I0
s(g37
g115
tp237
I0
s(g28
g37
tp238
I0
s(g13
g25
tp239
I0
s(g28
g34
tp240
I0
s(g12
g10
tp241
I0
s(g28
g142
tp242
I0
s(g7
g1
tp243
I0
s(g105
g4
tp244
I0
s(g44
g15
tp245
I0
s(g4
g142
tp246
I0
s(g27
g5
tp247
I0
s(g42
g42
tp248
I0
s(g80
g28
tp249
I0
s(g82
g42
tp250
I0
s(g10
g126
tp251
I0
s(g44
g42
tp252
I0
s(g42
g67
tp253
I0
s(g10
g44
tp254
I0
s(g10
g28
tp255
I0
s(g27
g25
tp256
I0
s(g10
g1
tp257
I0
s(g10
g25
tp258
I0
s(g4
g69
tp259
I0
s(g13
g7
tp260
I0
s(g8
g30
tp261
I0
s(g10
g10
tp262
I0
s(g2
g5
tp263
I0
s(g44
g34
tp264
I0
s(g13
g42
tp265
I0
s(g20
g1
tp266
I0
s(g67
g2
tp267
I0
s(g2
g15
tp268
I0
s(g28
g15
tp269
I0
s(g42
g27
tp270
I0
s(g28
g2
tp271
I0
s(g32
g1
tp272
I0
s(g86
g4
tp273
I0
s(g27
g67
tp274
I0
s(g4
g2
tp275
I0
s(g13
g4
tp276
I0
s(g42
g1
tp277
I0
s(g82
g1
tp278
I0
s(g37
g4
tp279
I0
s(g115
g25
tp280
I0
s(g126
g8
tp281
I0
s(g10
g7
tp282
I0
s(g69
g12
tp283
I0
s(g10
g82
tp284
I0
s(g67
g12
tp285
I0
s(g37
g142
tp286
I0
s(g5
g7
tp287
I0
s(g142
g12
tp288
I0
s(g1
g34
tp289
I0
s(g37
g105
tp290
I0
s(g5
g28
tp291
I0
s(g8
g1
tp292
I0
s(g7
g20
tp293
I0
s(g4
g27
tp294
I0
s(g1
g142
tp295
I0
s(g27
g4
tp296
I0
s(g15
g10
tp297
I0
s(g37
g44
tp298
I0
s(g13
g28
tp299
I0
s(g4
g15
tp300
I0
s(g17
g15
tp301
I0
s(g42
g2
tp302
I0
s(g15
g67
tp303
I0
s(g17
g7
tp304
I0
s(g32
g25
tp305
I0
s(g5
g13
tp306
I0
s(g12
g67
tp307
I0
s(g4
g8
tp308
I0
s(g28
g32
tp309
I0
s(g32
g42
tp310
I0
s(g34
g30
tp311
I0
s(g15
g28
tp312
I0
s(g17
g13
tp313
I0
s(g32
g28
tp314
I0
s(g12
g28
tp315
I0
s(g4
g12
tp316
I0
s(g5
g67
tp317
I0
s(g5
g1
tp318
I0
s(g4
g37
tp319
I0
s(g10
g20
tp320
I0
s(g37
g30
tp321
I0
s(g27
g13
tp322
I0
s(g10
g8
tp323
I0
s(g7
g44
tp324
I0
s(g8
g42
tp325
I0
s(g10
g67
tp326
I0
s(g80
g7
tp327
I0
s.